target datalayout = "e-m:e-p270:32:32-p271:32:32-p272:64:64-i64:64-i128:128-f80:128-n8:16:32:64-S128"
target triple = "x86_64-unknown-linux-gnu"

%class.TestDataModule = type { ptr, ptr, ptr, ptr }

@_ZTV14TestDataModule = unnamed_addr constant { [7 x ptr] } { [7 x ptr] [ptr null, ptr @_ZTI14TestDataModule, ptr @_ZN14TestDataModuleD1Ev, ptr @_ZN14TestDataModuleD0Ev, ptr @__cxa_pure_virtual, ptr @__cxa_pure_virtual, ptr @__cxa_pure_virtual] }, align 8

; Function Attrs: mustprogress nounwind uwtable
define void @_ZN14TestDataModuleC2EPKcR7TestLogR10UErrorCode(ptr noundef nonnull align 8 dereferenceable(32) %this, ptr noundef %name, ptr noundef nonnull align 8 dereferenceable(8) %log, ptr noundef nonnull align 4 dereferenceable(4) %0) unnamed_addr #0 align 2 {
entry:
  %this.addr = alloca ptr, align 8
  %name.addr = alloca ptr, align 8
  %log.addr = alloca ptr, align 8
  %.addr = alloca ptr, align 8
  store ptr %this, ptr %this.addr, align 8
  store ptr %name, ptr %name.addr, align 8
  store ptr %log, ptr %log.addr, align 8
  store ptr %0, ptr %.addr, align 8
  %this1 = load ptr, ptr %this.addr, align 8
  store ptr getelementptr inbounds ({ [7 x ptr] }, ptr @_ZTV14TestDataModule, i32 0, i32 0, i32 2), ptr %this1, align 8
  %testName = getelementptr inbounds %class.TestDataModule, ptr %this1, i32 0, i32 1
  %1 = load ptr, ptr %name.addr, align 8
  store ptr %1, ptr %testName, align 8
  %fInfo = getelementptr inbounds %class.TestDataModule, ptr %this1, i32 0, i32 2
  store ptr null, ptr %fInfo, align 8
  %fLog = getelementptr inbounds %class.TestDataModule, ptr %this1, i32 0, i32 3
  %2 = load ptr, ptr %log.addr, align 8
  store ptr %2, ptr %fLog, align 8
  ret void
}