; Function Attrs: mustprogress nofree norecurse nosync nounwind willreturn memory(argmem: write) uwtable
define void @_ZN14TestDataModuleC2EPKcR7TestLogR10UErrorCode(ptr nocapture noundef nonnull writeonly align 8 dereferenceable(32) %this, ptr noundef %name, ptr noundef nonnull align 8 dereferenceable(8) %log, ptr nocapture noundef nonnull readnone align 4 dereferenceable(4) %0) unnamed_addr #14 align 2 {
entry:
  store ptr getelementptr inbounds ({ [7 x ptr] }, ptr @_ZTV14TestDataModule, i64 0, i32 0, i64 2), ptr %this, align 8
  %testName = getelementptr inbounds i8, ptr %this, i64 8
  store ptr %name, ptr %testName, align 8
  %fInfo = getelementptr inbounds i8, ptr %this, i64 16
  store ptr null, ptr %fInfo, align 8
  %fLog = getelementptr inbounds i8, ptr %this, i64 24
  store ptr %log, ptr %fLog, align 8
  ret void
}